target datalayout = "e-m:e-p270:32:32-p271:32:32-p272:64:64-i64:64-i128:128-f80:128-n8:16:32:64-S128"
target triple = "x86_64-pc-linux-gnu"

; Function Attrs: mustprogress nounwind uwtable
define void @_ZN5faiss27ReproduceDistancesObjective18compute_mean_stdevEPKdmPdS3_(ptr noundef %0, i64 noundef %1, ptr noundef %2, ptr noundef %3) #1 align 2 {
  %5 = alloca ptr, align 8
  %6 = alloca i64, align 8
  %7 = alloca ptr, align 8
  %8 = alloca ptr, align 8
  %9 = alloca double, align 8
  %10 = alloca double, align 8
  %11 = alloca i32, align 4
  %12 = alloca double, align 8
  %13 = alloca double, align 8
  store ptr %0, ptr %5, align 8, !tbaa !115
  store i64 %1, ptr %6, align 8, !tbaa !41
  store ptr %2, ptr %7, align 8, !tbaa !115
  store ptr %3, ptr %8, align 8, !tbaa !115
  call void @llvm.lifetime.start.p0(i64 8, ptr %9) #16
  store double 0.000000e+00, ptr %9, align 8, !tbaa !15
  call void @llvm.lifetime.start.p0(i64 8, ptr %10) #16
  store double 0.000000e+00, ptr %10, align 8, !tbaa !15
  call void @llvm.lifetime.start.p0(i64 4, ptr %11) #16
  store i32 0, ptr %11, align 4, !tbaa !11
  br label %14

14:                                               ; preds = %40, %4
  %15 = load i32, ptr %11, align 4, !tbaa !11
  %16 = sext i32 %15 to i64
  %17 = load i64, ptr %6, align 8, !tbaa !41
  %18 = icmp ult i64 %16, %17
  br i1 %18, label %20, label %19

19:                                               ; preds = %14
  call void @llvm.lifetime.end.p0(i64 4, ptr %11) #16
  br label %43

20:                                               ; preds = %14
  %21 = load ptr, ptr %5, align 8, !tbaa !115
  %22 = load i32, ptr %11, align 4, !tbaa !11
  %23 = sext i32 %22 to i64
  %24 = getelementptr inbounds double, ptr %21, i64 %23
  %25 = load double, ptr %24, align 8, !tbaa !15
  %26 = load double, ptr %9, align 8, !tbaa !15
  %27 = fadd double %26, %25
  store double %27, ptr %9, align 8, !tbaa !15
  %28 = load ptr, ptr %5, align 8, !tbaa !115
  %29 = load i32, ptr %11, align 4, !tbaa !11
  %30 = sext i32 %29 to i64
  %31 = getelementptr inbounds double, ptr %28, i64 %30
  %32 = load double, ptr %31, align 8, !tbaa !15
  %33 = load ptr, ptr %5, align 8, !tbaa !115
  %34 = load i32, ptr %11, align 4, !tbaa !11
  %35 = sext i32 %34 to i64
  %36 = getelementptr inbounds double, ptr %33, i64 %35
  %37 = load double, ptr %36, align 8, !tbaa !15
  %38 = load double, ptr %10, align 8, !tbaa !15
  %39 = call double @llvm.fmuladd.f64(double %32, double %37, double %38)
  store double %39, ptr %10, align 8, !tbaa !15
  br label %40

40:                                               ; preds = %20
  %41 = load i32, ptr %11, align 4, !tbaa !11
  %42 = add nsw i32 %41, 1
  store i32 %42, ptr %11, align 4, !tbaa !11
  br label %14, !llvm.loop !129

43:                                               ; preds = %19
  call void @llvm.lifetime.start.p0(i64 8, ptr %12) #16
  %44 = load double, ptr %9, align 8, !tbaa !15
  %45 = load i64, ptr %6, align 8, !tbaa !41
  %46 = uitofp i64 %45 to double
  %47 = fdiv double %44, %46
  store double %47, ptr %12, align 8, !tbaa !15
  call void @llvm.lifetime.start.p0(i64 8, ptr %13) #16
  %48 = load double, ptr %10, align 8, !tbaa !15
  %49 = load i64, ptr %6, align 8, !tbaa !41
  %50 = uitofp i64 %49 to double
  %51 = fdiv double %48, %50
  %52 = load double, ptr %9, align 8, !tbaa !15
  %53 = load i64, ptr %6, align 8, !tbaa !41
  %54 = uitofp i64 %53 to double
  %55 = fdiv double %52, %54
  %56 = load double, ptr %9, align 8, !tbaa !15
  %57 = load i64, ptr %6, align 8, !tbaa !41
  %58 = uitofp i64 %57 to double
  %59 = fdiv double %56, %58
  %60 = fneg double %55
  %61 = call double @llvm.fmuladd.f64(double %60, double %59, double %51)
  %62 = call double @sqrt(double noundef %61) #16, !tbaa !11
  store double %62, ptr %13, align 8, !tbaa !15
  %63 = load double, ptr %12, align 8, !tbaa !15
  %64 = load ptr, ptr %7, align 8, !tbaa !115
  store double %63, ptr %64, align 8, !tbaa !15
  %65 = load double, ptr %13, align 8, !tbaa !15
  %66 = load ptr, ptr %8, align 8, !tbaa !115
  store double %65, ptr %66, align 8, !tbaa !15
  call void @llvm.lifetime.end.p0(i64 8, ptr %13) #16
  call void @llvm.lifetime.end.p0(i64 8, ptr %12) #16
  call void @llvm.lifetime.end.p0(i64 8, ptr %10) #16
  call void @llvm.lifetime.end.p0(i64 8, ptr %9) #16
  ret void
}