; Function Attrs: mustprogress nofree nounwind memory(write, argmem: readwrite) uwtable
define void @_ZN5faiss27ReproduceDistancesObjective18compute_mean_stdevEPKdmPdS3_(ptr noundef readonly captures(none) %0, i64 noundef %1, ptr noundef writeonly captures(none) %2, ptr noundef writeonly captures(none) %3) local_unnamed_addr #18 align 2 {
  %.not = icmp eq i64 %1, 0
  br i1 %.not, label %._crit_edge, label %.lr.ph

._crit_edge:                                      ; preds = %.lr.ph, %4
  %.022.lcssa = phi double [ 0.000000e+00, %4 ], [ %14, %.lr.ph ]
  %.0.lcssa = phi double [ 0.000000e+00, %4 ], [ %13, %.lr.ph ]
  %5 = uitofp nneg i64 %1 to double
  %6 = fdiv double %.0.lcssa, %5
  %7 = fdiv double %.022.lcssa, %5
  %8 = fneg double %6
  %9 = tail call double @llvm.fmuladd.f64(double %8, double %6, double %7)
  %10 = tail call double @sqrt(double noundef %9) #21, !tbaa !11
  store double %6, ptr %2, align 8, !tbaa !12
  store double %10, ptr %3, align 8, !tbaa !12
  ret void

.lr.ph:                                           ; preds = %4, %.lr.ph
  %indvars.iv = phi i64 [ %indvars.iv.next, %.lr.ph ], [ 0, %4 ]
  %.028 = phi double [ %13, %.lr.ph ], [ 0.000000e+00, %4 ]
  %.02227 = phi double [ %14, %.lr.ph ], [ 0.000000e+00, %4 ]
  %11 = getelementptr inbounds nuw double, ptr %0, i64 %indvars.iv
  %12 = load double, ptr %11, align 8, !tbaa !12
  %13 = fadd double %.028, %12
  %14 = tail call double @llvm.fmuladd.f64(double %12, double %12, double %.02227)
  %indvars.iv.next = add nuw nsw i64 %indvars.iv, 1
  %exitcond.not = icmp eq i64 %indvars.iv.next, %1
  br i1 %exitcond.not, label %._crit_edge, label %.lr.ph, !llvm.loop !68
}